target datalayout = "e-m:e-p270:32:32-p271:32:32-p272:64:64-i64:64-i128:128-f80:128-n8:16:32:64-S128"
target triple = "x86_64-pc-linux-gnu"

@.str = private unnamed_addr constant [120 x i8] c"generated/home/dtcxzyw/WorkSpace/Projects/compilers/llvm-opt-benchmark/bench/libquic/libquic/boringssl/ssl/tls_record.c\00", align 1

; Function Attrs: nounwind uwtable
define hidden i32 @ssl_record_sequence_update(ptr noundef %0, i64 noundef %1) #0 {
  %3 = alloca i32, align 4
  %4 = alloca ptr, align 8
  %5 = alloca i64, align 8
  %6 = alloca i64, align 8
  %7 = alloca i32, align 4
  store ptr %0, ptr %4, align 8, !tbaa !6
  store i64 %1, ptr %5, align 8, !tbaa !11
  call void @llvm.lifetime.start.p0(i64 8, ptr %6) #5
  %8 = load i64, ptr %5, align 8, !tbaa !11
  %9 = sub i64 %8, 1
  store i64 %9, ptr %6, align 8, !tbaa !11
  br label %10

10:                                               ; preds = %28, %2
  %11 = load i64, ptr %6, align 8, !tbaa !11
  %12 = load i64, ptr %5, align 8, !tbaa !11
  %13 = icmp ult i64 %11, %12
  br i1 %13, label %14, label %31

14:                                               ; preds = %10
  %15 = load ptr, ptr %4, align 8, !tbaa !6
  %16 = load i64, ptr %6, align 8, !tbaa !11
  %17 = getelementptr inbounds nuw i8, ptr %15, i64 %16
  %18 = load i8, ptr %17, align 1, !tbaa !13
  %19 = add i8 %18, 1
  store i8 %19, ptr %17, align 1, !tbaa !13
  %20 = load ptr, ptr %4, align 8, !tbaa !6
  %21 = load i64, ptr %6, align 8, !tbaa !11
  %22 = getelementptr inbounds nuw i8, ptr %20, i64 %21
  %23 = load i8, ptr %22, align 1, !tbaa !13
  %24 = zext i8 %23 to i32
  %25 = icmp ne i32 %24, 0
  br i1 %25, label %26, label %27

26:                                               ; preds = %14
  store i32 1, ptr %3, align 4
  store i32 1, ptr %7, align 4
  br label %32

27:                                               ; preds = %14
  br label %28

28:                                               ; preds = %27
  %29 = load i64, ptr %6, align 8, !tbaa !11
  %30 = add i64 %29, -1
  store i64 %30, ptr %6, align 8, !tbaa !11
  br label %10, !llvm.loop !14

31:                                               ; preds = %10
  call void @ERR_put_error(i32 noundef 16, i32 noundef 0, i32 noundef 69, ptr noundef @.str, i32 noundef 143)
  store i32 0, ptr %3, align 4
  store i32 1, ptr %7, align 4
  br label %32

32:                                               ; preds = %31, %26
  call void @llvm.lifetime.end.p0(i64 8, ptr %6) #5
  %33 = load i32, ptr %3, align 4
  ret i32 %33
}