; Function Attrs: nounwind uwtable
define hidden range(i32 0, 2) i32 @ssl_record_sequence_update(ptr noundef captures(none) %0, i64 noundef %1) local_unnamed_addr #0 {
  br label %3

3:                                                ; preds = %5, %2
  %.0.in = phi i64 [ %1, %2 ], [ %.0, %5 ]
  %.0 = add i64 %.0.in, -1
  %4 = icmp ult i64 %.0, %1
  br i1 %4, label %5, label %9

5:                                                ; preds = %3
  %6 = getelementptr inbounds nuw i8, ptr %0, i64 %.0
  %7 = load i8, ptr %6, align 1, !tbaa !6
  %8 = add i8 %7, 1
  store i8 %8, ptr %6, align 1, !tbaa !6
  %.not = icmp eq i8 %8, 0
  br i1 %.not, label %3, label %.loopexit, !llvm.loop !9

9:                                                ; preds = %3
  tail call void @ERR_put_error(i32 noundef 16, i32 noundef 0, i32 noundef 69, ptr noundef nonnull @.str, i32 noundef 143) #4
  br label %.loopexit

.loopexit:                                        ; preds = %5, %9
  %.08 = phi i32 [ 0, %9 ], [ 1, %5 ]
  ret i32 %.08
}